; Function Attrs: nofree norecurse nosync nounwind memory(argmem: readwrite) uwtable
define internal void @tm_4x4_c(ptr noundef writeonly captures(none) %0, i64 noundef %1, ptr noundef readonly captures(none) %2, ptr noundef readonly captures(none) %3) #2 {
  %5 = getelementptr inbounds i8, ptr %3, i64 -2
  %6 = load i16, ptr %5, align 2, !tbaa !9
  %7 = zext i16 %6 to i32
  %8 = lshr i64 %1, 1
  %9 = getelementptr inbounds nuw i8, ptr %3, i64 2
  %10 = getelementptr inbounds nuw i8, ptr %3, i64 4
  %11 = getelementptr inbounds nuw i8, ptr %3, i64 6
  br label %12

12:                                               ; preds = %4, %12
  %indvars.iv = phi i64 [ 0, %4 ], [ %indvars.iv.next, %12 ]
  %.034 = phi ptr [ %0, %4 ], [ %45, %12 ]
  %13 = sub nuw nsw i64 3, %indvars.iv
  %14 = getelementptr inbounds nuw i16, ptr %2, i64 %13
  %15 = load i16, ptr %14, align 2, !tbaa !9
  %16 = zext i16 %15 to i32
  %17 = sub nsw i32 %16, %7
  %18 = load i16, ptr %3, align 2, !tbaa !9
  %19 = zext i16 %18 to i32
  %20 = add nsw i32 %17, %19
  %21 = tail call i32 @llvm.smax.i32(i32 %20, i32 0)
  %22 = tail call i32 @llvm.umin.i32(i32 %21, i32 1023)
  %23 = trunc nuw nsw i32 %22 to i16
  store i16 %23, ptr %.034, align 2, !tbaa !9
  %24 = load i16, ptr %9, align 2, !tbaa !9
  %25 = zext i16 %24 to i32
  %26 = add nsw i32 %17, %25
  %27 = tail call i32 @llvm.smax.i32(i32 %26, i32 0)
  %28 = tail call i32 @llvm.umin.i32(i32 %27, i32 1023)
  %29 = trunc nuw nsw i32 %28 to i16
  %30 = getelementptr inbounds nuw i8, ptr %.034, i64 2
  store i16 %29, ptr %30, align 2, !tbaa !9
  %31 = load i16, ptr %10, align 2, !tbaa !9
  %32 = zext i16 %31 to i32
  %33 = add nsw i32 %17, %32
  %34 = tail call i32 @llvm.smax.i32(i32 %33, i32 0)
  %35 = tail call i32 @llvm.umin.i32(i32 %34, i32 1023)
  %36 = trunc nuw nsw i32 %35 to i16
  %37 = getelementptr inbounds nuw i8, ptr %.034, i64 4
  store i16 %36, ptr %37, align 2, !tbaa !9
  %38 = load i16, ptr %11, align 2, !tbaa !9
  %39 = zext i16 %38 to i32
  %40 = add nsw i32 %17, %39
  %41 = tail call i32 @llvm.smax.i32(i32 %40, i32 0)
  %42 = tail call i32 @llvm.umin.i32(i32 %41, i32 1023)
  %43 = trunc nuw nsw i32 %42 to i16
  %44 = getelementptr inbounds nuw i8, ptr %.034, i64 6
  store i16 %43, ptr %44, align 2, !tbaa !9
  %45 = getelementptr inbounds nuw i16, ptr %.034, i64 %8
  %indvars.iv.next = add nuw nsw i64 %indvars.iv, 1
  %exitcond.not = icmp eq i64 %indvars.iv.next, 4
  br i1 %exitcond.not, label %46, label %12, !llvm.loop !11

46:                                               ; preds = %12
  ret void
}